(lp0
S'Input1'
p1
aS'Input2'
p2
aS'conv1/random_uniform/shape'
p3
aS'conv1/random_uniform/min'
p4
aS'conv1/random_uniform/max'
p5
aS'conv1/random_uniform/RandomUniform'
p6
aS'conv1/random_uniform/sub'
p7
aS'conv1/random_uniform/mul'
p8
aS'conv1/random_uniform'
p9
aS'conv1/weights'
p10
aS'conv1/weights/read'
p11
aS'conv1/Const'
p12
aS'conv1/biases'
p13
aS'conv1/biases/read'
p14
aS'conv1/conv'
p15
aS'conv1/BiasAdd'
p16
aS'conv1/relu'
p17
aS'lrn1'
p18
aS'maxpool1'
p19
aS'conv2/random_uniform/shape'
p20
aS'conv2/random_uniform/min'
p21
aS'conv2/random_uniform/max'
p22
aS'conv2/random_uniform/RandomUniform'
p23
aS'conv2/random_uniform/sub'
p24
aS'conv2/random_uniform/mul'
p25
aS'conv2/random_uniform'
p26
aS'conv2/weights'
p27
aS'conv2/weights/read'
p28
aS'conv2/Const'
p29
aS'conv2/biases'
p30
aS'conv2/biases/read'
p31
aS'conv2/conv'
p32
aS'conv2/BiasAdd'
p33
aS'conv2/relu'
p34
aS'lrn2'
p35
aS'maxpool2'
p36
aS'conv3/random_uniform/shape'
p37
aS'conv3/random_uniform/min'
p38
aS'conv3/random_uniform/max'
p39
aS'conv3/random_uniform/RandomUniform'
p40
aS'conv3/random_uniform/sub'
p41
aS'conv3/random_uniform/mul'
p42
aS'conv3/random_uniform'
p43
aS'conv3/weights'
p44
aS'conv3/weights/read'
p45
aS'conv3/Const'
p46
aS'conv3/biases'
p47
aS'conv3/biases/read'
p48
aS'conv3/conv'
p49
aS'conv3/BiasAdd'
p50
aS'conv3/relu'
p51
aS'conv4/random_uniform/shape'
p52
aS'conv4/random_uniform/min'
p53
aS'conv4/random_uniform/max'
p54
aS'conv4/random_uniform/RandomUniform'
p55
aS'conv4/random_uniform/sub'
p56
aS'conv4/random_uniform/mul'
p57
aS'conv4/random_uniform'
p58
aS'conv4/weights'
p59
aS'conv4/weights/read'
p60
aS'conv4/Const'
p61
aS'conv4/biases'
p62
aS'conv4/biases/read'
p63
aS'conv4/conv'
p64
aS'conv4/BiasAdd'
p65
aS'conv4/relu'
p66
aS'maxpool3'
p67
aS'reshape1/shape'
p68
aS'reshape1'
p69
aS'fc1/random_uniform/shape'
p70
aS'fc1/random_uniform/min'
p71
aS'fc1/random_uniform/max'
p72
aS'fc1/random_uniform/RandomUniform'
p73
aS'fc1/random_uniform/sub'
p74
aS'fc1/random_uniform/mul'
p75
aS'fc1/random_uniform'
p76
aS'fc1/weights'
p77
aS'fc1/weights/read'
p78
aS'fc1/Const'
p79
aS'fc1/biases'
p80
aS'fc1/biases/read'
p81
aS'fc1/relu/MatMul'
p82
aS'fc1/relu/BiasAdd'
p83
aS'fc1/relu'
p91
aS'fc2/random_uniform/shape'
p92
aS'fc2/random_uniform/min'
p93
aS'fc2/random_uniform/max'
p94
aS'fc2/random_uniform/RandomUniform'
p95
aS'fc2/random_uniform/sub'
p96
aS'fc2/random_uniform/mul'
p97
aS'fc2/random_uniform'
p98
aS'fc2/weights'
p99
aS'fc2/weights/read'
p100
aS'fc2/Const'
p101
aS'fc2/biases'
p102
aS'fc2/biases/read'
p103
aS'fc2/relu/MatMul'
p104
aS'fc2/relu/BiasAdd'
p105
aS'fc2/relu'
p106
aS'fc2/l2_normalize/Square'
p107
aS'fc2/l2_normalize/Sum/reduction_indices'
p108
aS'fc2/l2_normalize/Sum'
p109
aS'fc2/l2_normalize/Maximum/y'
p110
aS'fc2/l2_normalize/Maximum'
p111
aS'fc2/l2_normalize/Rsqrt'
p112
aS'fc2/l2_normalize'
p113
aS'conv1_1/conv'
p114
aS'conv1_1/BiasAdd'
p115
aS'conv1_1/relu'
p116
aS'lrn1_1'
p117
aS'maxpool1_1'
p118
aS'conv2_1/conv'
p119
aS'conv2_1/BiasAdd'
p120
aS'conv2_1/relu'
p121
aS'lrn2_1'
p122
aS'maxpool2_1'
p123
aS'conv3_1/conv'
p124
aS'conv3_1/BiasAdd'
p125
aS'conv3_1/relu'
p126
aS'conv4_1/conv'
p127
aS'conv4_1/BiasAdd'
p128
aS'conv4_1/relu'
p129
aS'maxpool3_1'
p130
aS'reshape1_1/shape'
p131
aS'reshape1_1'
p132
aS'fc1_1/relu/MatMul'
p133
aS'fc1_1/relu/BiasAdd'
p134
aS'fc1_1/relu'
p135
aS'fc1_1/l2_normalize/Square'
p136
aS'fc1_1/l2_normalize/Sum/reduction_indices'
p137
aS'fc1_1/l2_normalize/Sum'
p138
aS'fc1_1/l2_normalize/Maximum/y'
p139
aS'fc1_1/l2_normalize/Maximum'
p140
aS'fc1_1/l2_normalize/Rsqrt'
p141
aS'fc1_1/l2_normalize'
p142
aS'fc2_1/relu/MatMul'
p143
aS'fc2_1/relu/BiasAdd'
p144
aS'fc2_1/relu'
p145
aS'fc2_1/l2_normalize/Square'
p146
aS'fc2_1/l2_normalize/Sum/reduction_indices'
p147
aS'fc2_1/l2_normalize/Sum'
p148
aS'fc2_1/l2_normalize/Maximum/y'
p149
aS'fc2_1/l2_normalize/Maximum'
p150
aS'fc2_1/l2_normalize/Rsqrt'
p151
aS'fc2_1/l2_normalize'
p152
aS'EucliedanDistance/Sub'
p153
aS'EucliedanDistance/Square'
p154
aS'EucliedanDistance/Sum/reduction_indices'
p155
aS'EucliedanDistance/Sum'
p156
aS'EucliedanDistance/Distance'
p157
a.